; ModuleID = '33/2391.c'
source_filename = "33/2391.c"
target datalayout = "e-m:e-p270:32:32-p271:32:32-p272:64:64-i64:64-f80:128-n8:16:32:64-S128"
target triple = "x86_64-pc-linux-gnu"

@.str = private unnamed_addr constant [3 x i8] c"%d\00", align 1
@.str.1 = private unnamed_addr constant [3 x i8] c"%s\00", align 1
@.str.2 = private unnamed_addr constant [4 x i8] c"%s\0A\00", align 1

; Function Attrs: noinline nounwind uwtable
define dso_local i32 @main() #0 {
  %1 = alloca i32, align 4
  %2 = alloca i32, align 4
  %3 = alloca i32, align 4
  %4 = alloca i32, align 4
  %5 = alloca [1000 x [1000 x i8]], align 16
  %6 = alloca [1000 x [1000 x i8]], align 16
  store i32 0, i32* %1, align 4
  %7 = call i32 (i8*, ...) @__isoc99_scanf(i8* getelementptr inbounds ([3 x i8], [3 x i8]* @.str, i64 0, i64 0), i32* %2)
  store i32 0, i32* %3, align 4
  br label %8

8:                                                ; preds = %18, %0
  %9 = load i32, i32* %3, align 4
  %10 = load i32, i32* %2, align 4
  %11 = icmp slt i32 %9, %10
  br i1 %11, label %12, label %21

12:                                               ; preds = %8
  %13 = load i32, i32* %3, align 4
  %14 = sext i32 %13 to i64
  %15 = getelementptr inbounds [1000 x [1000 x i8]], [1000 x [1000 x i8]]* %5, i64 0, i64 %14
  %16 = getelementptr inbounds [1000 x i8], [1000 x i8]* %15, i64 0, i64 0
  %17 = call i32 (i8*, ...) @__isoc99_scanf(i8* getelementptr inbounds ([3 x i8], [3 x i8]* @.str.1, i64 0, i64 0), i8* %16)
  br label %18

18:                                               ; preds = %12
  %19 = load i32, i32* %3, align 4
  %20 = add nsw i32 %19, 1
  store i32 %20, i32* %3, align 4
  br label %8

21:                                               ; preds = %8
  store i32 0, i32* %3, align 4
  br label %22

22:                                               ; preds = %106, %21
  %23 = load i32, i32* %3, align 4
  %24 = load i32, i32* %2, align 4
  %25 = icmp slt i32 %23, %24
  br i1 %25, label %26, label %109

26:                                               ; preds = %22
  store i32 0, i32* %4, align 4
  br label %27

27:                                               ; preds = %102, %26
  %28 = load i32, i32* %4, align 4
  %29 = icmp ne i32 %28, 1000
  br i1 %29, label %30, label %105

30:                                               ; preds = %27
  %31 = load i32, i32* %3, align 4
  %32 = sext i32 %31 to i64
  %33 = getelementptr inbounds [1000 x [1000 x i8]], [1000 x [1000 x i8]]* %5, i64 0, i64 %32
  %34 = load i32, i32* %4, align 4
  %35 = sext i32 %34 to i64
  %36 = getelementptr inbounds [1000 x i8], [1000 x i8]* %33, i64 0, i64 %35
  %37 = load i8, i8* %36, align 1
  %38 = sext i8 %37 to i32
  %39 = icmp eq i32 %38, 65
  br i1 %39, label %40, label %47

40:                                               ; preds = %30
  %41 = load i32, i32* %3, align 4
  %42 = sext i32 %41 to i64
  %43 = getelementptr inbounds [1000 x [1000 x i8]], [1000 x [1000 x i8]]* %6, i64 0, i64 %42
  %44 = load i32, i32* %4, align 4
  %45 = sext i32 %44 to i64
  %46 = getelementptr inbounds [1000 x i8], [1000 x i8]* %43, i64 0, i64 %45
  store i8 84, i8* %46, align 1
  br label %101

47:                                               ; preds = %30
  %48 = load i32, i32* %3, align 4
  %49 = sext i32 %48 to i64
  %50 = getelementptr inbounds [1000 x [1000 x i8]], [1000 x [1000 x i8]]* %5, i64 0, i64 %49
  %51 = load i32, i32* %4, align 4
  %52 = sext i32 %51 to i64
  %53 = getelementptr inbounds [1000 x i8], [1000 x i8]* %50, i64 0, i64 %52
  %54 = load i8, i8* %53, align 1
  %55 = sext i8 %54 to i32
  %56 = icmp eq i32 %55, 84
  br i1 %56, label %57, label %64

57:                                               ; preds = %47
  %58 = load i32, i32* %3, align 4
  %59 = sext i32 %58 to i64
  %60 = getelementptr inbounds [1000 x [1000 x i8]], [1000 x [1000 x i8]]* %6, i64 0, i64 %59
  %61 = load i32, i32* %4, align 4
  %62 = sext i32 %61 to i64
  %63 = getelementptr inbounds [1000 x i8], [1000 x i8]* %60, i64 0, i64 %62
  store i8 65, i8* %63, align 1
  br label %100

64:                                               ; preds = %47
  %65 = load i32, i32* %3, align 4
  %66 = sext i32 %65 to i64
  %67 = getelementptr inbounds [1000 x [1000 x i8]], [1000 x [1000 x i8]]* %5, i64 0, i64 %66
  %68 = load i32, i32* %4, align 4
  %69 = sext i32 %68 to i64
  %70 = getelementptr inbounds [1000 x i8], [1000 x i8]* %67, i64 0, i64 %69
  %71 = load i8, i8* %70, align 1
  %72 = sext i8 %71 to i32
  %73 = icmp eq i32 %72, 71
  br i1 %73, label %74, label %81

74:                                               ; preds = %64
  %75 = load i32, i32* %3, align 4
  %76 = sext i32 %75 to i64
  %77 = getelementptr inbounds [1000 x [1000 x i8]], [1000 x [1000 x i8]]* %6, i64 0, i64 %76
  %78 = load i32, i32* %4, align 4
  %79 = sext i32 %78 to i64
  %80 = getelementptr inbounds [1000 x i8], [1000 x i8]* %77, i64 0, i64 %79
  store i8 67, i8* %80, align 1
  br label %99

81:                                               ; preds = %64
  %82 = load i32, i32* %3, align 4
  %83 = sext i32 %82 to i64
  %84 = getelementptr inbounds [1000 x [1000 x i8]], [1000 x [1000 x i8]]* %5, i64 0, i64 %83
  %85 = load i32, i32* %4, align 4
  %86 = sext i32 %85 to i64
  %87 = getelementptr inbounds [1000 x i8], [1000 x i8]* %84, i64 0, i64 %86
  %88 = load i8, i8* %87, align 1
  %89 = sext i8 %88 to i32
  %90 = icmp eq i32 %89, 67
  br i1 %90, label %91, label %98

91:                                               ; preds = %81
  %92 = load i32, i32* %3, align 4
  %93 = sext i32 %92 to i64
  %94 = getelementptr inbounds [1000 x [1000 x i8]], [1000 x [1000 x i8]]* %6, i64 0, i64 %93
  %95 = load i32, i32* %4, align 4
  %96 = sext i32 %95 to i64
  %97 = getelementptr inbounds [1000 x i8], [1000 x i8]* %94, i64 0, i64 %96
  store i8 71, i8* %97, align 1
  br label %98

98:                                               ; preds = %91, %81
  br label %99

99:                                               ; preds = %98, %74
  br label %100

100:                                              ; preds = %99, %57
  br label %101

101:                                              ; preds = %100, %40
  br label %102

102:                                              ; preds = %101
  %103 = load i32, i32* %4, align 4
  %104 = add nsw i32 %103, 1
  store i32 %104, i32* %4, align 4
  br label %27

105:                                              ; preds = %27
  br label %106

106:                                              ; preds = %105
  %107 = load i32, i32* %3, align 4
  %108 = add nsw i32 %107, 1
  store i32 %108, i32* %3, align 4
  br label %22

109:                                              ; preds = %22
  store i32 0, i32* %3, align 4
  br label %110

110:                                              ; preds = %120, %109
  %111 = load i32, i32* %3, align 4
  %112 = load i32, i32* %2, align 4
  %113 = icmp slt i32 %111, %112
  br i1 %113, label %114, label %123

114:                                              ; preds = %110
  %115 = load i32, i32* %3, align 4
  %116 = sext i32 %115 to i64
  %117 = getelementptr inbounds [1000 x [1000 x i8]], [1000 x [1000 x i8]]* %6, i64 0, i64 %116
  %118 = getelementptr inbounds [1000 x i8], [1000 x i8]* %117, i64 0, i64 0
  %119 = call i32 (i8*, ...) @printf(i8* getelementptr inbounds ([4 x i8], [4 x i8]* @.str.2, i64 0, i64 0), i8* %118)
  br label %120

120:                                              ; preds = %114
  %121 = load i32, i32* %3, align 4
  %122 = add nsw i32 %121, 1
  store i32 %122, i32* %3, align 4
  br label %110

123:                                              ; preds = %110
  ret i32 0
}

declare dso_local i32 @__isoc99_scanf(i8*, ...) #1

declare dso_local i32 @printf(i8*, ...) #1


!llvm.module.flags = !{!0}
!llvm.ident = !{!1}

!0 = !{i32 1, !"wchar_size", i32 4}
!1 = !{!"clang version 10.0.0-4ubuntu1 "}
